(dp0
S'roadveh_slope_steepness'
p1
I7
sS'smoke_amount'
p2
I1
sS'train_slope_steepness'
p3
I3
sS'screenshot_format'
p4
S'None'
p5
sS'max_roadveh'
p6
I500
sS'script_max_opcode_till_suspend'
p7
I10000
sS'roadveh_acceleration_model'
p8
I0
sS'train_acceleration_model'
p9
I0
sS'max_train_length'
p10
I7
sS'max_trains'
p11
I500
sS'resolution'
p12
(lp13
S'1535'
p14
aS'848'
p15
asS'savegame_format'
p16
g5
sS'max_aircraft'
p17
I200
s.